(dp1
S'OriginalConfig'
p2
ccopy_reg
_reconstructor
p3
(cWMCore.Configuration
Configuration
p4
c__builtin__
object
p5
NtRp6
(dp7
S'Site'
p8
g3
(cWMCore.Configuration
ConfigSection
p9
g5
NtRp10
(dp11
S'_internal_skipChecks'
p12
I00
sS'_internal_documentation'
p13
S''
sS'_internal_settings'
p14
c__builtin__
set
p15
((lp16
S'blacklist'
p17
aS'storageSite'
p18
atRp19
sS'_internal_name'
p20
g8
sS'_internal_docstrings'
p21
(dp22
sg17
(lp23
S'T3_US_UMiss'
p24
aS'T3_FR_IPNL'
p25
aS'T2_CH_CSCS_HPC'
p26
asS'_internal_children'
p27
g15
((ltRp28
sg18
S'T3_US_FNALLPC'
p29
sS'_internal_parent_ref'
p30
NsbsS'_internal_sections'
p31
(lp32
S'General'
p33
aS'JobType'
p34
aS'Data'
p35
ag8
aS'User'
p36
aS'Debug'
p37
asg33
g3
(g9
g5
NtRp38
(dp39
S'transferLogs'
p40
I00
sg12
I00
sg13
S''
sg14
g15
((lp41
g40
aS'transferOutputs'
p42
aS'workArea'
p43
aS'requestName'
p44
atRp45
sg20
g33
sg21
(dp46
sg42
I01
sg27
g15
((ltRp47
sg44
S'Radion_hh_wwww_jets_M2000_GEN-SIM-RAW-100k'
p48
sg30
Nsg43
S'crab_projects'
p49
sbsS'_internal_webapps'
p50
(lp51
sg36
g3
(g9
g5
NtRp52
(dp53
g12
I00
sg13
S''
sg14
g15
((ltRp54
sg20
g36
sg21
(dp55
sg27
g15
((ltRp56
sg30
NsbsS'_internal_components'
p57
(lp58
sg37
g3
(g9
g5
NtRp59
(dp60
g12
I00
sg13
S''
sg14
g15
((ltRp61
sg20
g37
sg21
(dp62
sg27
g15
((ltRp63
sg30
Nsbsg35
g3
(g9
g5
NtRp64
(dp65
S'inputDataset'
p66
S'/MinBias/bregnery-Radion_hh_wwww_jets_M2000_GEN-SIM-100k_RAWSIMoutput-3f464eaef0b8b95c67a5ece847b51684/USER'
p67
sS'outputDatasetTag'
p68
g48
sg12
I00
sS'splitting'
p69
S'FileBased'
p70
sS'unitsPerJob'
p71
I1
sg13
S''
sg14
g15
((lp72
g66
ag68
aS'publication'
p73
ag71
aS'inputDBS'
p74
ag69
aS'outLFNDirBase'
p75
atRp76
sg20
g35
sg74
S'phys03'
p77
sg21
(dp78
sg27
g15
((ltRp79
sg75
S'/store/user/bregnery/'
p80
sg30
Nsg73
I01
sbsg34
g3
(g9
g5
NtRp81
(dp82
S'numCores'
p83
I4
sg12
I00
sg13
S''
sg14
g15
((lp84
S'psetName'
p85
aS'pluginName'
p86
ag83
aS'maxMemoryMB'
p87
atRp88
sg20
g34
sg21
(dp89
sg86
S'Analysis'
p90
sg27
g15
((ltRp91
sg85
S'B2G-RunIISummer16DR80Premix_Radion_hh_wwww_M2000_GEN-SIM-RAW_cfg.py'
p92
sg30
Nsg87
I5000
sbsbsS'voGroup'
p93
S''
sS'Server'
p94
S'cmsweb.cern.ch'
p95
sS'instance'
p96
S'prod'
p97
sS'RequestName'
p98
V180315_052849:bregnery_crab_Radion_hh_wwww_jets_M2000_GEN-SIM-RAW-100k
p99
sS'voRole'
p100
S'NULL'
p101
sS'Port'
p102
S''
s.