(dp1
S'OriginalConfig'
p2
ccopy_reg
_reconstructor
p3
(cWMCore.Configuration
Configuration
p4
c__builtin__
object
p5
NtRp6
(dp7
S'Site'
p8
g3
(cWMCore.Configuration
ConfigSection
p9
g5
NtRp10
(dp11
S'_internal_skipChecks'
p12
I00
sS'_internal_documentation'
p13
S''
sS'_internal_settings'
p14
c__builtin__
set
p15
((lp16
S'storageSite'
p17
atRp18
sS'_internal_name'
p19
g8
sS'_internal_docstrings'
p20
(dp21
sS'_internal_children'
p22
g15
((ltRp23
sg17
S'T3_US_FNALLPC'
p24
sS'_internal_parent_ref'
p25
NsbsS'_internal_sections'
p26
(lp27
S'General'
p28
aS'JobType'
p29
aS'Data'
p30
ag8
aS'User'
p31
aS'Debug'
p32
asg28
g3
(g9
g5
NtRp33
(dp34
S'transferLogs'
p35
I00
sg12
I00
sg13
S''
sg14
g15
((lp36
g35
aS'transferOutputs'
p37
aS'workArea'
p38
aS'requestName'
p39
atRp40
sg19
g28
sg20
(dp41
sg37
I01
sg22
g15
((ltRp42
sg39
S'Radion_hh_wwww_jets_AODSIM-100k'
p43
sg25
Nsg38
S'crab_projects'
p44
sbsS'_internal_webapps'
p45
(lp46
sg31
g3
(g9
g5
NtRp47
(dp48
g12
I00
sg13
S''
sg14
g15
((ltRp49
sg19
g31
sg20
(dp50
sg22
g15
((ltRp51
sg25
NsbsS'_internal_components'
p52
(lp53
sg32
g3
(g9
g5
NtRp54
(dp55
g12
I00
sg13
S''
sg14
g15
((ltRp56
sg19
g32
sg20
(dp57
sg22
g15
((ltRp58
sg25
Nsbsg30
g3
(g9
g5
NtRp59
(dp60
S'inputDataset'
p61
S'/MinBias/bregnery-Radion_hh_wwww_jets_M3500_GEN-SIM-RAW-100k-16ca0fac1b892ff3c3d45d801745cbbf/USER'
p62
sS'allowNonValidInputDataset'
p63
I01
sg12
I00
sS'splitting'
p64
S'FileBased'
p65
sS'unitsPerJob'
p66
I1
sg13
S''
sg14
g15
((lp67
g61
ag63
aS'publication'
p68
ag66
aS'inputDBS'
p69
ag64
aS'outputDatasetTag'
p70
aS'outLFNDirBase'
p71
atRp72
sg19
g30
sg69
S'phys03'
p73
sg20
(dp74
sg70
g43
sg22
g15
((ltRp75
sg71
S'/store/user/bregnery/'
p76
sg25
Nsg68
I01
sbsg29
g3
(g9
g5
NtRp77
(dp78
S'numCores'
p79
I4
sg12
I00
sg13
S''
sg14
g15
((lp80
S'psetName'
p81
aS'pluginName'
p82
ag79
aS'maxMemoryMB'
p83
atRp84
sg19
g29
sg20
(dp85
sg82
S'Analysis'
p86
sg22
g15
((ltRp87
sg81
S'B2G-RunIISummer16DR80Premix_Radion_hh_wwww_M3500_AODSIM_cfg.py'
p88
sg25
Nsg83
I5000
sbsbsS'voGroup'
p89
S''
sS'Server'
p90
S'cmsweb.cern.ch'
p91
sS'instance'
p92
S'prod'
p93
sS'RequestName'
p94
V180315_053115:bregnery_crab_Radion_hh_wwww_jets_AODSIM-100k
p95
sS'voRole'
p96
S'NULL'
p97
sS'Port'
p98
S''
s.