(dp1
S'OriginalConfig'
p2
ccopy_reg
_reconstructor
p3
(cWMCore.Configuration
Configuration
p4
c__builtin__
object
p5
NtRp6
(dp7
S'Site'
p8
g3
(cWMCore.Configuration
ConfigSection
p9
g5
NtRp10
(dp11
S'_internal_skipChecks'
p12
I00
sS'_internal_documentation'
p13
S''
sS'_internal_settings'
p14
c__builtin__
set
p15
((lp16
S'blacklist'
p17
aS'storageSite'
p18
atRp19
sS'_internal_name'
p20
g8
sS'_internal_docstrings'
p21
(dp22
sg17
(lp23
S'T3_US_UMiss'
p24
aS'T3_FR_IPNL'
p25
asS'_internal_children'
p26
g15
((ltRp27
sg18
S'T3_US_FNALLPC'
p28
sS'_internal_parent_ref'
p29
NsbsS'_internal_sections'
p30
(lp31
S'General'
p32
aS'JobType'
p33
aS'Data'
p34
ag8
aS'User'
p35
aS'Debug'
p36
asg32
g3
(g9
g5
NtRp37
(dp38
S'transferLogs'
p39
I00
sg12
I00
sg13
S''
sg14
g15
((lp40
g39
aS'transferOutputs'
p41
aS'workArea'
p42
aS'requestName'
p43
atRp44
sg20
g32
sg21
(dp45
sg41
I01
sg26
g15
((ltRp46
sg43
S'Radion_hh_wwww_jets_M3500_GEN-SIM-100k'
p47
sg29
Nsg42
S'crab_projects'
p48
sbsS'_internal_webapps'
p49
(lp50
sg35
g3
(g9
g5
NtRp51
(dp52
g12
I00
sg13
S''
sg14
g15
((ltRp53
sg20
g35
sg21
(dp54
sg26
g15
((ltRp55
sg29
NsbsS'_internal_components'
p56
(lp57
sg36
g3
(g9
g5
NtRp58
(dp59
g12
I00
sg13
S''
sg14
g15
((ltRp60
sg20
g36
sg21
(dp61
sg26
g15
((ltRp62
sg29
Nsbsg34
g3
(g9
g5
NtRp63
(dp64
S'outputDatasetTag'
p65
g47
sg12
I00
sS'unitsPerJob'
p66
I250
sg13
S''
sg14
g15
((lp67
g65
aS'publication'
p68
ag66
aS'splitting'
p69
aS'outLFNDirBase'
p70
aS'outputPrimaryDataset'
p71
aS'totalUnits'
p72
atRp73
sg70
S'/store/user/bregnery/'
p74
sg20
g34
sg69
S'EventBased'
p75
sg21
(dp76
sg26
g15
((ltRp77
sg68
I01
sg71
S'MinBias'
p78
sg29
Nsg72
I100000
sbsg33
g3
(g9
g5
NtRp79
(dp80
g12
I00
sg13
S''
sg14
g15
((lp81
S'psetName'
p82
aS'pluginName'
p83
atRp84
sg20
g33
sg21
(dp85
sg83
S'PrivateMC'
p86
sg26
g15
((ltRp87
sg82
S'B2G-RunIISummer15wmLHEGS_Radion_hh_wwww_M3500_GENSIM_cfg.py'
p88
sg29
NsbsbsS'voGroup'
p89
S''
sS'Server'
p90
S'cmsweb.cern.ch'
p91
sS'instance'
p92
S'prod'
p93
sS'RequestName'
p94
V180313_171047:bregnery_crab_Radion_hh_wwww_jets_M3500_GEN-SIM-100k
p95
sS'voRole'
p96
S'NULL'
p97
sS'Port'
p98
S''
s.